target datalayout = "e-m:e-p270:32:32-p271:32:32-p272:64:64-i64:64-i128:128-f80:128-n8:16:32:64-S128"
target triple = "x86_64-pc-linux-gnu"

@packed_threshold = internal global i64 0, align 8

; Function Attrs: nounwind uwtable
define dso_local i32 @quicklistSetPackedThreshold(i64 noundef %0) #0 {
  %2 = alloca i32, align 4
  %3 = alloca i64, align 8
  store i64 %0, ptr %3, align 8, !tbaa !5
  %4 = load i64, ptr %3, align 8, !tbaa !5
  %5 = icmp ugt i64 %4, 4293918720
  br i1 %5, label %6, label %7

6:                                                ; preds = %1
  store i32 0, ptr %2, align 4
  br label %9

7:                                                ; preds = %1
  %8 = load i64, ptr %3, align 8, !tbaa !5
  store i64 %8, ptr @packed_threshold, align 8, !tbaa !5
  store i32 1, ptr %2, align 4
  br label %9

9:                                                ; preds = %7, %6
  %10 = load i32, ptr %2, align 4
  ret i32 %10
}