; Function Attrs: mustprogress nofree norecurse nosync nounwind willreturn memory(write, argmem: none, inaccessiblemem: none) uwtable
define dso_local range(i32 0, 2) i32 @quicklistSetPackedThreshold(i64 noundef %0) local_unnamed_addr #0 {
  %2 = icmp ugt i64 %0, 4293918720
  br i1 %2, label %4, label %3

3:                                                ; preds = %1
  store i64 %0, ptr @packed_threshold, align 8, !tbaa !5
  br label %4

4:                                                ; preds = %1, %3
  %.0 = phi i32 [ 1, %3 ], [ 0, %1 ]
  ret i32 %.0
}